target datalayout = "e-m:e-p270:32:32-p271:32:32-p272:64:64-i64:64-i128:128-f80:128-n8:16:32:64-S128"
target triple = "x86_64-pc-linux-gnu"

%struct.TupleTableSlotOps = type { i64, ptr, ptr, ptr, ptr, ptr, ptr, ptr, ptr, ptr, ptr, ptr, ptr }
%struct.PortalData = type { ptr, ptr, ptr, ptr, ptr, i32, i32, i32, ptr, i32, %struct.QueryCompletion, ptr, ptr, ptr, ptr, i32, i32, i32, i8, i8, ptr, ptr, ptr, ptr, ptr, ptr, ptr, i8, i8, i64, i64, i8 }
%struct.QueryCompletion = type { i32, i64 }
%struct._DestReceiver = type { ptr, ptr, ptr, ptr, i32 }
%struct.TupleTableSlot = type { i32, i16, i16, ptr, ptr, ptr, ptr, ptr, %struct.ItemPointerData, i32 }
%struct.ItemPointerData = type { %struct.BlockIdData, i16 }
%struct.BlockIdData = type { i16, i16 }

@CurrentMemoryContext = external global ptr, align 8
@TTSOpsMinimalTuple = external constant %struct.TupleTableSlotOps, align 8

; Function Attrs: inlinehint nounwind uwtable
define internal ptr @ExecClearTuple(ptr noundef %0) #3 {
  %2 = alloca ptr, align 8
  store ptr %0, ptr %2, align 8
  %3 = load ptr, ptr %2, align 8
  %4 = getelementptr inbounds nuw %struct.TupleTableSlot, ptr %3, i32 0, i32 3
  %5 = load ptr, ptr %4, align 8
  %6 = getelementptr inbounds nuw %struct.TupleTableSlotOps, ptr %5, i32 0, i32 3
  %7 = load ptr, ptr %6, align 8
  %8 = load ptr, ptr %2, align 8
  call void %7(ptr noundef %8)
  %9 = load ptr, ptr %2, align 8
  ret ptr %9
}

; Function Attrs: inlinehint nounwind uwtable
define internal ptr @MemoryContextSwitchTo(ptr noundef %0) #3 {
  %2 = alloca ptr, align 8
  %3 = alloca ptr, align 8
  store ptr %0, ptr %2, align 8
  call void @llvm.lifetime.start.p0(i64 8, ptr %3) #10
  %4 = load ptr, ptr @CurrentMemoryContext, align 8
  store ptr %4, ptr %3, align 8
  %5 = load ptr, ptr %2, align 8
  store ptr %5, ptr @CurrentMemoryContext, align 8
  %6 = load ptr, ptr %3, align 8
  call void @llvm.lifetime.end.p0(i64 8, ptr %3) #10
  ret ptr %6
}

; Function Attrs: nounwind uwtable
define internal i64 @RunFromStore(ptr noundef %0, i32 noundef %1, i64 noundef %2, ptr noundef %3) #0 {
  %5 = alloca ptr, align 8
  %6 = alloca i32, align 4
  %7 = alloca i64, align 8
  %8 = alloca ptr, align 8
  %9 = alloca i64, align 8
  %10 = alloca ptr, align 8
  %11 = alloca i8, align 1
  %12 = alloca ptr, align 8
  %13 = alloca i8, align 1
  %14 = alloca i32, align 4
  store ptr %0, ptr %5, align 8
  store i32 %1, ptr %6, align 4
  store i64 %2, ptr %7, align 8
  store ptr %3, ptr %8, align 8
  call void @llvm.lifetime.start.p0(i64 8, ptr %9) #10
  store i64 0, ptr %9, align 8
  call void @llvm.lifetime.start.p0(i64 8, ptr %10) #10
  %15 = load ptr, ptr %5, align 8
  %16 = getelementptr inbounds nuw %struct.PortalData, ptr %15, i32 0, i32 21
  %17 = load ptr, ptr %16, align 8
  %18 = call ptr @MakeSingleTupleTableSlot(ptr noundef %17, ptr noundef @TTSOpsMinimalTuple)
  store ptr %18, ptr %10, align 8
  %19 = load ptr, ptr %8, align 8
  %20 = getelementptr inbounds nuw %struct._DestReceiver, ptr %19, i32 0, i32 1
  %21 = load ptr, ptr %20, align 8
  %22 = load ptr, ptr %8, align 8
  %23 = load ptr, ptr %5, align 8
  %24 = getelementptr inbounds nuw %struct.PortalData, ptr %23, i32 0, i32 21
  %25 = load ptr, ptr %24, align 8
  call void %21(ptr noundef %22, i32 noundef 1, ptr noundef %25)
  %26 = load i32, ptr %6, align 4
  %27 = icmp eq i32 %26, 0
  br i1 %27, label %28, label %29

28:                                               ; preds = %4
  br label %76

29:                                               ; preds = %4
  call void @llvm.lifetime.start.p0(i64 1, ptr %11) #10
  %30 = load i32, ptr %6, align 4
  %31 = icmp eq i32 %30, 1
  %32 = zext i1 %31 to i8
  store i8 %32, ptr %11, align 1
  br label %33

33:                                               ; preds = %74, %29
  call void @llvm.lifetime.start.p0(i64 8, ptr %12) #10
  call void @llvm.lifetime.start.p0(i64 1, ptr %13) #10
  %34 = load ptr, ptr %5, align 8
  %35 = getelementptr inbounds nuw %struct.PortalData, ptr %34, i32 0, i32 25
  %36 = load ptr, ptr %35, align 8
  %37 = call ptr @MemoryContextSwitchTo(ptr noundef %36)
  store ptr %37, ptr %12, align 8
  %38 = load ptr, ptr %5, align 8
  %39 = getelementptr inbounds nuw %struct.PortalData, ptr %38, i32 0, i32 24
  %40 = load ptr, ptr %39, align 8
  %41 = load i8, ptr %11, align 1, !range !4, !noundef !5
  %42 = trunc i8 %41 to i1
  %43 = load ptr, ptr %10, align 8
  %44 = call zeroext i1 @tuplestore_gettupleslot(ptr noundef %40, i1 noundef zeroext %42, i1 noundef zeroext false, ptr noundef %43)
  %45 = zext i1 %44 to i8
  store i8 %45, ptr %13, align 1
  %46 = load ptr, ptr %12, align 8
  %47 = call ptr @MemoryContextSwitchTo(ptr noundef %46)
  %48 = load i8, ptr %13, align 1, !range !4, !noundef !5
  %49 = trunc i8 %48 to i1
  br i1 %49, label %51, label %50

50:                                               ; preds = %33
  store i32 2, ptr %14, align 4
  br label %72

51:                                               ; preds = %33
  %52 = load ptr, ptr %8, align 8
  %53 = getelementptr inbounds nuw %struct._DestReceiver, ptr %52, i32 0, i32 0
  %54 = load ptr, ptr %53, align 8
  %55 = load ptr, ptr %10, align 8
  %56 = load ptr, ptr %8, align 8
  %57 = call zeroext i1 %54(ptr noundef %55, ptr noundef %56)
  br i1 %57, label %59, label %58

58:                                               ; preds = %51
  store i32 2, ptr %14, align 4
  br label %72

59:                                               ; preds = %51
  %60 = load ptr, ptr %10, align 8
  %61 = call ptr @ExecClearTuple(ptr noundef %60)
  %62 = load i64, ptr %9, align 8
  %63 = add i64 %62, 1
  store i64 %63, ptr %9, align 8
  %64 = load i64, ptr %7, align 8
  %65 = icmp ne i64 %64, 0
  br i1 %65, label %66, label %71

66:                                               ; preds = %59
  %67 = load i64, ptr %7, align 8
  %68 = load i64, ptr %9, align 8
  %69 = icmp eq i64 %67, %68
  br i1 %69, label %70, label %71

70:                                               ; preds = %66
  store i32 2, ptr %14, align 4
  br label %72

71:                                               ; preds = %66, %59
  store i32 0, ptr %14, align 4
  br label %72

72:                                               ; preds = %71, %70, %58, %50
  call void @llvm.lifetime.end.p0(i64 1, ptr %13) #10
  call void @llvm.lifetime.end.p0(i64 8, ptr %12) #10
  %73 = load i32, ptr %14, align 4
  switch i32 %73, label %83 [
    i32 0, label %74
    i32 2, label %75
  ]

74:                                               ; preds = %72
  br label %33

75:                                               ; preds = %72
  call void @llvm.lifetime.end.p0(i64 1, ptr %11) #10
  br label %76

76:                                               ; preds = %75, %28
  %77 = load ptr, ptr %8, align 8
  %78 = getelementptr inbounds nuw %struct._DestReceiver, ptr %77, i32 0, i32 2
  %79 = load ptr, ptr %78, align 8
  %80 = load ptr, ptr %8, align 8
  call void %79(ptr noundef %80)
  %81 = load ptr, ptr %10, align 8
  call void @ExecDropSingleTupleTableSlot(ptr noundef %81)
  %82 = load i64, ptr %9, align 8
  store i32 1, ptr %14, align 4
  call void @llvm.lifetime.end.p0(i64 8, ptr %10) #10
  call void @llvm.lifetime.end.p0(i64 8, ptr %9) #10
  ret i64 %82

83:                                               ; preds = %72
  unreachable
}