; Function Attrs: nounwind uwtable
define internal fastcc i64 @RunFromStore(ptr noundef readonly captures(none) %0, i32 noundef range(i32 -1, 2) %1, i64 noundef range(i64 0, -9223372036854775808) %2, ptr noundef %3) unnamed_addr #0 {
  %5 = getelementptr inbounds nuw i8, ptr %0, i64 144
  %6 = load ptr, ptr %5, align 8
  %7 = tail call ptr @MakeSingleTupleTableSlot(ptr noundef %6, ptr noundef nonnull @TTSOpsMinimalTuple) #11
  %8 = getelementptr inbounds nuw i8, ptr %3, i64 8
  %9 = load ptr, ptr %8, align 8
  %10 = load ptr, ptr %5, align 8
  tail call void %9(ptr noundef %3, i32 noundef 1, ptr noundef %10) #11
  %11 = icmp eq i32 %1, 0
  br i1 %11, label %.thread, label %12

12:                                               ; preds = %4
  %13 = icmp eq i32 %1, 1
  %14 = getelementptr inbounds nuw i8, ptr %0, i64 176
  %15 = getelementptr inbounds nuw i8, ptr %0, i64 168
  %16 = getelementptr inbounds nuw i8, ptr %7, i64 8
  %.not.not = icmp eq i64 %2, 0
  br i1 %.not.not, label %.split.us, label %.split

.split.us:                                        ; preds = %12
  %17 = load ptr, ptr %14, align 8
  %18 = load ptr, ptr @CurrentMemoryContext, align 8
  store ptr %17, ptr @CurrentMemoryContext, align 8
  %19 = load ptr, ptr %15, align 8
  %20 = tail call zeroext i1 @tuplestore_gettupleslot(ptr noundef %19, i1 noundef zeroext %13, i1 noundef zeroext false, ptr noundef %7) #11
  store ptr %18, ptr @CurrentMemoryContext, align 8
  br i1 %20, label %.lr.ph, label %.thread

.lr.ph:                                           ; preds = %.split.us, %23
  %.1.us31 = phi i64 [ %27, %23 ], [ 0, %.split.us ]
  %21 = load ptr, ptr %3, align 8
  %22 = tail call zeroext i1 %21(ptr noundef %7, ptr noundef nonnull %3) #11
  br i1 %22, label %23, label %.thread

23:                                               ; preds = %.lr.ph
  %24 = load ptr, ptr %16, align 8
  %25 = getelementptr inbounds nuw i8, ptr %24, i64 24
  %26 = load ptr, ptr %25, align 8
  tail call void %26(ptr noundef %7) #11
  %27 = add i64 %.1.us31, 1
  %28 = load ptr, ptr %14, align 8
  %29 = load ptr, ptr @CurrentMemoryContext, align 8
  store ptr %28, ptr @CurrentMemoryContext, align 8
  %30 = load ptr, ptr %15, align 8
  %31 = tail call zeroext i1 @tuplestore_gettupleslot(ptr noundef %30, i1 noundef zeroext %13, i1 noundef zeroext false, ptr noundef %7) #11
  store ptr %29, ptr @CurrentMemoryContext, align 8
  br i1 %31, label %.lr.ph, label %.thread

.split:                                           ; preds = %12, %39
  %.1 = phi i64 [ %43, %39 ], [ 0, %12 ]
  %32 = load ptr, ptr %14, align 8
  %33 = load ptr, ptr @CurrentMemoryContext, align 8
  store ptr %32, ptr @CurrentMemoryContext, align 8
  %34 = load ptr, ptr %15, align 8
  %35 = tail call zeroext i1 @tuplestore_gettupleslot(ptr noundef %34, i1 noundef zeroext %13, i1 noundef zeroext false, ptr noundef %7) #11
  store ptr %33, ptr @CurrentMemoryContext, align 8
  br i1 %35, label %36, label %.thread

36:                                               ; preds = %.split
  %37 = load ptr, ptr %3, align 8
  %38 = tail call zeroext i1 %37(ptr noundef %7, ptr noundef nonnull %3) #11
  br i1 %38, label %39, label %.thread

39:                                               ; preds = %36
  %40 = load ptr, ptr %16, align 8
  %41 = getelementptr inbounds nuw i8, ptr %40, i64 24
  %42 = load ptr, ptr %41, align 8
  tail call void %42(ptr noundef %7) #11
  %43 = add nuw nsw i64 %.1, 1
  %44 = icmp eq i64 %2, %43
  br i1 %44, label %.thread, label %.split

.thread:                                          ; preds = %.split, %36, %39, %23, %.lr.ph, %.split.us, %4
  %.024 = phi i64 [ 0, %4 ], [ 0, %.split.us ], [ %.1.us31, %.lr.ph ], [ %27, %23 ], [ %2, %39 ], [ %.1, %.split ], [ %.1, %36 ]
  %45 = getelementptr inbounds nuw i8, ptr %3, i64 16
  %46 = load ptr, ptr %45, align 8
  tail call void %46(ptr noundef nonnull %3) #11
  tail call void @ExecDropSingleTupleTableSlot(ptr noundef %7) #11
  ret i64 %.024
}